target datalayout = "e-m:e-p270:32:32-p271:32:32-p272:64:64-i64:64-i128:128-f80:128-n8:16:32:64-S128"
target triple = "x86_64-pc-linux-gnu"

%class.PairRep = type { i64, i64 }

@_ZZN20ElapsedCounterSource9frequencyEvE4freq = internal global i64 0, align 8
@_ZGVZN20ElapsedCounterSource9frequencyEvE4freq = internal global i64 0, align 8

; Function Attrs: mustprogress nounwind uwtable
define hidden noundef i64 @_ZN20ElapsedCounterSource9frequencyEv() #1 align 2 {
  %1 = load atomic i8, ptr @_ZGVZN20ElapsedCounterSource9frequencyEvE4freq acquire, align 8
  %2 = icmp eq i8 %1, 0
  br i1 %2, label %3, label %8, !prof !6

3:                                                ; preds = %0
  %4 = call i32 @__cxa_guard_acquire(ptr @_ZGVZN20ElapsedCounterSource9frequencyEvE4freq) #2
  %5 = icmp ne i32 %4, 0
  br i1 %5, label %6, label %8

6:                                                ; preds = %3
  %7 = call noundef i64 @_ZN2os17elapsed_frequencyEv()
  store i64 %7, ptr @_ZZN20ElapsedCounterSource9frequencyEvE4freq, align 8
  call void @__cxa_guard_release(ptr @_ZGVZN20ElapsedCounterSource9frequencyEvE4freq) #2
  br label %8

8:                                                ; preds = %6, %3, %0
  %9 = load i64, ptr @_ZZN20ElapsedCounterSource9frequencyEvE4freq, align 8
  ret i64 %9
}

; Function Attrs: mustprogress nounwind uwtable
define linkonce_odr hidden noundef double @_Z10conversionI20ElapsedCounterSourceLi1EEdRNT_4TypeE(ptr noundef nonnull align 8 dereferenceable(8) %0) #1 comdat {
  %2 = alloca ptr, align 8
  store ptr %0, ptr %2, align 8
  %3 = load ptr, ptr %2, align 8
  %4 = load i64, ptr %3, align 8
  %5 = sitofp i64 %4 to double
  %6 = call noundef i64 @_ZN20ElapsedCounterSource9frequencyEv()
  %7 = uitofp i64 %6 to double
  %8 = fdiv double 1.000000e+00, %7
  %9 = fmul double %5, %8
  ret double %9
}

; Function Attrs: mustprogress nounwind uwtable
define hidden noundef double @_ZN29CompositeElapsedCounterSource7secondsE7PairRepIllE(i64 %0, i64 %1) #1 align 2 {
  %3 = alloca %class.PairRep, align 8
  %4 = getelementptr inbounds { i64, i64 }, ptr %3, i32 0, i32 0
  store i64 %0, ptr %4, align 8
  %5 = getelementptr inbounds { i64, i64 }, ptr %3, i32 0, i32 1
  store i64 %1, ptr %5, align 8
  %6 = getelementptr inbounds %class.PairRep, ptr %3, i32 0, i32 0
  %7 = call noundef double @_Z10conversionI20ElapsedCounterSourceLi1EEdRNT_4TypeE(ptr noundef nonnull align 8 dereferenceable(8) %6)
  ret double %7
}